target datalayout = "e-m:e-p270:32:32-p271:32:32-p272:64:64-i64:64-i128:128-f80:128-n8:16:32:64-S128"
target triple = "x86_64-pc-linux-gnu"

%struct.lzma_block = type { i32, i32, i32, i64, i64, ptr, [64 x i8], ptr, ptr, ptr, i32, i32, i64, i64, i64, i64, i64, i64, i32, i32, i32, i32, i8, i8, i8, i8, i8, i8, i8, i8 }
%struct.lzma_filter = type { i64, ptr }

; Function Attrs: nounwind uwtable
define dso_local i32 @lzma_block_header_size(ptr noundef %0) #0 {
  %2 = alloca i32, align 4
  %3 = alloca ptr, align 8
  %4 = alloca i32, align 4
  %5 = alloca i32, align 4
  %6 = alloca i32, align 4
  %7 = alloca i32, align 4
  %8 = alloca i64, align 8
  %9 = alloca i32, align 4
  %10 = alloca i32, align 4
  store ptr %0, ptr %3, align 8, !tbaa !4
  %11 = load ptr, ptr %3, align 8, !tbaa !4
  %12 = getelementptr inbounds nuw %struct.lzma_block, ptr %11, i32 0, i32 0
  %13 = load i32, ptr %12, align 8, !tbaa !8
  %14 = icmp ugt i32 %13, 1
  br i1 %14, label %15, label %16

15:                                               ; preds = %1
  store i32 8, ptr %2, align 4
  br label %126

16:                                               ; preds = %1
  call void @llvm.lifetime.start.p0(i64 4, ptr %4) #7
  store i32 6, ptr %4, align 4, !tbaa !12
  %17 = load ptr, ptr %3, align 8, !tbaa !4
  %18 = getelementptr inbounds nuw %struct.lzma_block, ptr %17, i32 0, i32 3
  %19 = load i64, ptr %18, align 8, !tbaa !13
  %20 = icmp ne i64 %19, -1
  br i1 %20, label %21, label %41

21:                                               ; preds = %16
  call void @llvm.lifetime.start.p0(i64 4, ptr %5) #7
  %22 = load ptr, ptr %3, align 8, !tbaa !4
  %23 = getelementptr inbounds nuw %struct.lzma_block, ptr %22, i32 0, i32 3
  %24 = load i64, ptr %23, align 8, !tbaa !13
  %25 = call i32 @lzma_vli_size(i64 noundef %24) #8
  store i32 %25, ptr %5, align 4, !tbaa !12
  %26 = load i32, ptr %5, align 4, !tbaa !12
  %27 = icmp eq i32 %26, 0
  br i1 %27, label %33, label %28

28:                                               ; preds = %21
  %29 = load ptr, ptr %3, align 8, !tbaa !4
  %30 = getelementptr inbounds nuw %struct.lzma_block, ptr %29, i32 0, i32 3
  %31 = load i64, ptr %30, align 8, !tbaa !13
  %32 = icmp eq i64 %31, 0
  br i1 %32, label %33, label %34

33:                                               ; preds = %28, %21
  store i32 11, ptr %2, align 4
  store i32 1, ptr %6, align 4
  br label %38

34:                                               ; preds = %28
  %35 = load i32, ptr %5, align 4, !tbaa !12
  %36 = load i32, ptr %4, align 4, !tbaa !12
  %37 = add i32 %36, %35
  store i32 %37, ptr %4, align 4, !tbaa !12
  store i32 0, ptr %6, align 4
  br label %38

38:                                               ; preds = %34, %33
  call void @llvm.lifetime.end.p0(i64 4, ptr %5) #7
  %39 = load i32, ptr %6, align 4
  switch i32 %39, label %125 [
    i32 0, label %40
  ]

40:                                               ; preds = %38
  br label %41

41:                                               ; preds = %40, %16
  %42 = load ptr, ptr %3, align 8, !tbaa !4
  %43 = getelementptr inbounds nuw %struct.lzma_block, ptr %42, i32 0, i32 4
  %44 = load i64, ptr %43, align 8, !tbaa !14
  %45 = icmp ne i64 %44, -1
  br i1 %45, label %46, label %61

46:                                               ; preds = %41
  call void @llvm.lifetime.start.p0(i64 4, ptr %7) #7
  %47 = load ptr, ptr %3, align 8, !tbaa !4
  %48 = getelementptr inbounds nuw %struct.lzma_block, ptr %47, i32 0, i32 4
  %49 = load i64, ptr %48, align 8, !tbaa !14
  %50 = call i32 @lzma_vli_size(i64 noundef %49) #8
  store i32 %50, ptr %7, align 4, !tbaa !12
  %51 = load i32, ptr %7, align 4, !tbaa !12
  %52 = icmp eq i32 %51, 0
  br i1 %52, label %53, label %54

53:                                               ; preds = %46
  store i32 11, ptr %2, align 4
  store i32 1, ptr %6, align 4
  br label %58

54:                                               ; preds = %46
  %55 = load i32, ptr %7, align 4, !tbaa !12
  %56 = load i32, ptr %4, align 4, !tbaa !12
  %57 = add i32 %56, %55
  store i32 %57, ptr %4, align 4, !tbaa !12
  store i32 0, ptr %6, align 4
  br label %58

58:                                               ; preds = %54, %53
  call void @llvm.lifetime.end.p0(i64 4, ptr %7) #7
  %59 = load i32, ptr %6, align 4
  switch i32 %59, label %125 [
    i32 0, label %60
  ]

60:                                               ; preds = %58
  br label %61

61:                                               ; preds = %60, %41
  %62 = load ptr, ptr %3, align 8, !tbaa !4
  %63 = getelementptr inbounds nuw %struct.lzma_block, ptr %62, i32 0, i32 5
  %64 = load ptr, ptr %63, align 8, !tbaa !15
  %65 = icmp eq ptr %64, null
  br i1 %65, label %74, label %66

66:                                               ; preds = %61
  %67 = load ptr, ptr %3, align 8, !tbaa !4
  %68 = getelementptr inbounds nuw %struct.lzma_block, ptr %67, i32 0, i32 5
  %69 = load ptr, ptr %68, align 8, !tbaa !15
  %70 = getelementptr inbounds %struct.lzma_filter, ptr %69, i64 0
  %71 = getelementptr inbounds nuw %struct.lzma_filter, ptr %70, i32 0, i32 0
  %72 = load i64, ptr %71, align 8, !tbaa !16
  %73 = icmp eq i64 %72, -1
  br i1 %73, label %74, label %75

74:                                               ; preds = %66, %61
  store i32 11, ptr %2, align 4
  store i32 1, ptr %6, align 4
  br label %125

75:                                               ; preds = %66
  call void @llvm.lifetime.start.p0(i64 8, ptr %8) #7
  store i64 0, ptr %8, align 8, !tbaa !18
  br label %76

76:                                               ; preds = %114, %75
  %77 = load ptr, ptr %3, align 8, !tbaa !4
  %78 = getelementptr inbounds nuw %struct.lzma_block, ptr %77, i32 0, i32 5
  %79 = load ptr, ptr %78, align 8, !tbaa !15
  %80 = load i64, ptr %8, align 8, !tbaa !18
  %81 = getelementptr inbounds nuw %struct.lzma_filter, ptr %79, i64 %80
  %82 = getelementptr inbounds nuw %struct.lzma_filter, ptr %81, i32 0, i32 0
  %83 = load i64, ptr %82, align 8, !tbaa !16
  %84 = icmp ne i64 %83, -1
  br i1 %84, label %86, label %85

85:                                               ; preds = %76
  store i32 2, ptr %6, align 4
  br label %117

86:                                               ; preds = %76
  %87 = load i64, ptr %8, align 8, !tbaa !18
  %88 = icmp eq i64 %87, 4
  br i1 %88, label %89, label %90

89:                                               ; preds = %86
  store i32 11, ptr %2, align 4
  store i32 1, ptr %6, align 4
  br label %117

90:                                               ; preds = %86
  call void @llvm.lifetime.start.p0(i64 4, ptr %9) #7
  br label %91

91:                                               ; preds = %90
  call void @llvm.lifetime.start.p0(i64 4, ptr %10) #7
  %92 = load ptr, ptr %3, align 8, !tbaa !4
  %93 = getelementptr inbounds nuw %struct.lzma_block, ptr %92, i32 0, i32 5
  %94 = load ptr, ptr %93, align 8, !tbaa !15
  %95 = load i64, ptr %8, align 8, !tbaa !18
  %96 = getelementptr inbounds nuw %struct.lzma_filter, ptr %94, i64 %95
  %97 = call i32 @lzma_filter_flags_size(ptr noundef %9, ptr noundef %96) #7
  store i32 %97, ptr %10, align 4, !tbaa !12
  %98 = load i32, ptr %10, align 4, !tbaa !12
  %99 = icmp ne i32 %98, 0
  br i1 %99, label %100, label %102

100:                                              ; preds = %91
  %101 = load i32, ptr %10, align 4, !tbaa !12
  store i32 %101, ptr %2, align 4
  store i32 1, ptr %6, align 4
  br label %103

102:                                              ; preds = %91
  store i32 0, ptr %6, align 4
  br label %103

103:                                              ; preds = %102, %100
  call void @llvm.lifetime.end.p0(i64 4, ptr %10) #7
  %104 = load i32, ptr %6, align 4
  switch i32 %104, label %111 [
    i32 0, label %105
  ]

105:                                              ; preds = %103
  br label %106

106:                                              ; preds = %105
  br label %107

107:                                              ; preds = %106
  %108 = load i32, ptr %9, align 4, !tbaa !12
  %109 = load i32, ptr %4, align 4, !tbaa !12
  %110 = add i32 %109, %108
  store i32 %110, ptr %4, align 4, !tbaa !12
  store i32 0, ptr %6, align 4
  br label %111

111:                                              ; preds = %107, %103
  call void @llvm.lifetime.end.p0(i64 4, ptr %9) #7
  %112 = load i32, ptr %6, align 4
  switch i32 %112, label %117 [
    i32 0, label %113
  ]

113:                                              ; preds = %111
  br label %114

114:                                              ; preds = %113
  %115 = load i64, ptr %8, align 8, !tbaa !18
  %116 = add i64 %115, 1
  store i64 %116, ptr %8, align 8, !tbaa !18
  br label %76, !llvm.loop !19

117:                                              ; preds = %111, %89, %85
  call void @llvm.lifetime.end.p0(i64 8, ptr %8) #7
  %118 = load i32, ptr %6, align 4
  switch i32 %118, label %125 [
    i32 2, label %119
  ]

119:                                              ; preds = %117
  %120 = load i32, ptr %4, align 4, !tbaa !12
  %121 = add i32 %120, 3
  %122 = and i32 %121, -4
  %123 = load ptr, ptr %3, align 8, !tbaa !4
  %124 = getelementptr inbounds nuw %struct.lzma_block, ptr %123, i32 0, i32 1
  store i32 %122, ptr %124, align 4, !tbaa !21
  store i32 0, ptr %2, align 4
  store i32 1, ptr %6, align 4
  br label %125

125:                                              ; preds = %119, %117, %74, %58, %38
  call void @llvm.lifetime.end.p0(i64 4, ptr %4) #7
  br label %126

126:                                              ; preds = %125, %15
  %127 = load i32, ptr %2, align 4
  ret i32 %127
}