; Function Attrs: nounwind uwtable
define dso_local i32 @lzma_block_header_size(ptr noundef captures(none) %0) local_unnamed_addr #0 {
  %2 = alloca i32, align 4
  %3 = load i32, ptr %0, align 8, !tbaa !4
  %4 = icmp ugt i32 %3, 1
  br i1 %4, label %.thread, label %5

5:                                                ; preds = %1
  %6 = getelementptr inbounds nuw i8, ptr %0, i64 16
  %7 = load i64, ptr %6, align 8, !tbaa !11
  %.not = icmp eq i64 %7, -1
  br i1 %.not, label %13, label %8

8:                                                ; preds = %5
  %9 = tail call i32 @lzma_vli_size(i64 noundef %7) #5
  %10 = icmp ne i32 %9, 0
  %11 = icmp ne i64 %7, 0
  %or.cond.not = and i1 %11, %10
  %12 = add i32 %9, 6
  %spec.select57 = select i1 %11, i32 %12, i32 6
  br i1 %or.cond.not, label %13, label %.thread

13:                                               ; preds = %8, %5
  %.035 = phi i32 [ %spec.select57, %8 ], [ 6, %5 ]
  %14 = getelementptr inbounds nuw i8, ptr %0, i64 24
  %15 = load i64, ptr %14, align 8, !tbaa !12
  %.not53 = icmp eq i64 %15, -1
  br i1 %.not53, label %19, label %16

16:                                               ; preds = %13
  %17 = tail call i32 @lzma_vli_size(i64 noundef %15) #5
  %.not54 = icmp eq i32 %17, 0
  %18 = add i32 %17, %.035
  br i1 %.not54, label %.thread, label %19

19:                                               ; preds = %16, %13
  %.237 = phi i32 [ %18, %16 ], [ %.035, %13 ]
  %20 = getelementptr inbounds nuw i8, ptr %0, i64 32
  %21 = load ptr, ptr %20, align 8, !tbaa !13
  %22 = icmp eq ptr %21, null
  br i1 %22, label %.thread, label %23

23:                                               ; preds = %19
  %24 = load i64, ptr %21, align 8, !tbaa !14
  %25 = icmp eq i64 %24, -1
  br i1 %25, label %.thread, label %.lr.ph

.lr.ph:                                           ; preds = %23, %31
  %26 = phi ptr [ %35, %31 ], [ %21, %23 ]
  %.03465 = phi i64 [ %33, %31 ], [ 0, %23 ]
  %.43964 = phi i32 [ %32, %31 ], [ %.237, %23 ]
  %27 = icmp eq i64 %.03465, 4
  br i1 %27, label %.thread, label %28

28:                                               ; preds = %.lr.ph
  call void @llvm.lifetime.start.p0(i64 4, ptr nonnull %2) #6
  %29 = call i32 @lzma_filter_flags_size(ptr noundef nonnull %2, ptr noundef nonnull %26) #6
  %.not56 = icmp eq i32 %29, 0
  %30 = load i32, ptr %2, align 4
  call void @llvm.lifetime.end.p0(i64 4, ptr nonnull %2) #6
  br i1 %.not56, label %31, label %.thread

31:                                               ; preds = %28
  %32 = add i32 %30, %.43964
  %33 = add nuw nsw i64 %.03465, 1
  %34 = load ptr, ptr %20, align 8, !tbaa !13
  %35 = getelementptr inbounds nuw %struct.lzma_filter, ptr %34, i64 %33
  %36 = load i64, ptr %35, align 8, !tbaa !14
  %.not55 = icmp eq i64 %36, -1
  br i1 %.not55, label %._crit_edge, label %.lr.ph, !llvm.loop !16

._crit_edge:                                      ; preds = %31
  %37 = add i32 %32, 3
  %38 = and i32 %37, -4
  %39 = getelementptr inbounds nuw i8, ptr %0, i64 4
  store i32 %38, ptr %39, align 4, !tbaa !18
  br label %.thread

.thread:                                          ; preds = %28, %.lr.ph, %._crit_edge, %16, %8, %23, %19, %1
  %.0 = phi i32 [ 8, %1 ], [ 0, %._crit_edge ], [ 11, %16 ], [ 11, %8 ], [ 11, %23 ], [ 11, %19 ], [ %29, %28 ], [ 11, %.lr.ph ]
  ret i32 %.0
}